; Function Attrs: mustprogress nofree norecurse nosync nounwind willreturn memory(argmem: read) uwtable
define internal noundef range(i64 -288230376151711744, 288230376151711744) i64 @_ZNK3ue212_GLOBAL__N_120raw_report_info_impl4sizeEv(ptr noundef nonnull readonly align 8 captures(none) dereferenceable(32) %0) unnamed_addr #7 align 2 {
  %2 = getelementptr inbounds nuw i8, ptr %0, i64 8
  %.val = load ptr, ptr %2, align 8
  %3 = getelementptr inbounds nuw i8, ptr %0, i64 16
  %.val1 = load ptr, ptr %3, align 8
  %4 = ptrtoint ptr %.val1 to i64
  %5 = ptrtoint ptr %.val to i64
  %6 = sub i64 %4, %5
  %7 = ashr exact i64 %6, 5
  ret i64 %7
}